; Function Attrs: nounwind uwtable
define internal noundef zeroext i1 @HIDAPI_DriverSwitch_IsSupportedDevice(ptr noundef %0, ptr noundef %1, i32 noundef %2, i16 noundef zeroext %3, i16 noundef zeroext %4, i16 zeroext %5, i32 %6, i32 %7, i32 %8, i32 %9) #0 {
  %11 = tail call i32 @SDL_strcmp_REAL(ptr noundef %1, ptr noundef nonnull @.str.29) #9
  %12 = icmp eq i32 %11, 0
  br i1 %12, label %HIDAPI_DriverNintendoClassic_IsSupportedDevice.exit.thread, label %13

13:                                               ; preds = %10
  %14 = icmp eq i16 %3, 1406
  br i1 %14, label %15, label %HIDAPI_DriverNintendoClassic_IsSupportedDevice.exit

15:                                               ; preds = %13
  switch i16 %4, label %HIDAPI_DriverNintendoClassic_IsSupportedDevice.exit [
    i16 8199, label %16
    i16 8217, label %HIDAPI_DriverNintendoClassic_IsSupportedDevice.exit.thread
    i16 8222, label %HIDAPI_DriverNintendoClassic_IsSupportedDevice.exit.thread
    i16 8215, label %HIDAPI_DriverNintendoClassic_IsSupportedDevice.exit.thread
  ]

16:                                               ; preds = %15
  %17 = tail call i32 @SDL_strncmp_REAL(ptr noundef %1, ptr noundef nonnull @.str.4, i64 noundef 14) #9
  %18 = icmp eq i32 %17, 0
  br i1 %18, label %HIDAPI_DriverNintendoClassic_IsSupportedDevice.exit.thread, label %19

19:                                               ; preds = %16
  %20 = tail call i32 @SDL_strncmp_REAL(ptr noundef %1, ptr noundef nonnull @.str.5, i64 noundef 14) #9
  %21 = icmp eq i32 %20, 0
  br i1 %21, label %HIDAPI_DriverNintendoClassic_IsSupportedDevice.exit.thread, label %HIDAPI_DriverNintendoClassic_IsSupportedDevice.exit

HIDAPI_DriverNintendoClassic_IsSupportedDevice.exit: ; preds = %19, %15, %13
  %22 = tail call zeroext i1 @HIDAPI_DriverJoyCons_IsSupportedDevice(ptr noundef %0, ptr poison, i32 poison, i16 noundef zeroext %3, i16 noundef zeroext %4, i16 zeroext poison, i32 poison, i32 poison, i32 poison, i32 poison)
  %23 = icmp eq i32 %2, 7
  %not. = xor i1 %22, true
  %spec.select = and i1 %23, %not.
  br label %HIDAPI_DriverNintendoClassic_IsSupportedDevice.exit.thread

HIDAPI_DriverNintendoClassic_IsSupportedDevice.exit.thread: ; preds = %15, %15, %15, %16, %19, %HIDAPI_DriverNintendoClassic_IsSupportedDevice.exit, %10
  %.0 = phi i1 [ false, %10 ], [ %spec.select, %HIDAPI_DriverNintendoClassic_IsSupportedDevice.exit ], [ false, %19 ], [ false, %16 ], [ false, %15 ], [ false, %15 ], [ false, %15 ]
  ret i1 %.0
}